target datalayout = "e-m:e-p270:32:32-p271:32:32-p272:64:64-i64:64-i128:128-f80:128-n8:16:32:64-S128"
target triple = "x86_64-pc-linux-gnu"

%struct.mbedtls_ssl_context = type { ptr, i32, i32, i32, i32, i32, ptr, ptr, ptr, ptr, ptr, ptr, ptr, ptr, ptr, ptr, ptr, ptr, ptr, ptr, ptr, ptr, ptr, ptr, ptr, ptr, ptr, ptr, ptr, ptr, ptr, ptr, ptr, i32, i64, i64, i16, i64, i64, i64, i64, i32, i32, i8, i8, i32, i8, ptr, ptr, ptr, ptr, ptr, ptr, ptr, i32, i64, i64, [8 x i8], i16, ptr, ptr, ptr, i64, i32, i64, [12 x i8], [12 x i8], [32 x i8], i8, i8, ptr, ptr, %union.mbedtls_ssl_user_data_t }
%union.mbedtls_ssl_user_data_t = type { i64 }
%struct.mbedtls_ssl_handshake_params = type { i8, i8, i8, i8, i8, i32, i8, i8, i8, i8, ptr, ptr, ptr, ptr, ptr, i8, i8, i8, i8, i16, i16, [20 x i16], ptr, ptr, %struct.mbedtls_dhm_context, %struct.mbedtls_ecdh_context, i16, i64, i32, i8, [1024 x i8], i64, ptr, ptr, i64, i16, ptr, ptr, ptr, ptr, %struct.anon, ptr, i16, i8, i32, i32, i32, ptr, ptr, ptr, i32, ptr, [8 x i8], i8, [32 x i8], i8, i16, %struct.mbedtls_md_context_t, %struct.mbedtls_md_context_t, i16, i8, %union.anon.1, [64 x i8], [1076 x i8], i64, i32, i32, i8, ptr, ptr, %union.anon.4, %struct.mbedtls_ssl_tls13_handshake_secrets, ptr, i64, ptr }
%struct.mbedtls_dhm_context = type { %struct.mbedtls_mpi, %struct.mbedtls_mpi, %struct.mbedtls_mpi, %struct.mbedtls_mpi, %struct.mbedtls_mpi, %struct.mbedtls_mpi, %struct.mbedtls_mpi, %struct.mbedtls_mpi, %struct.mbedtls_mpi, %struct.mbedtls_mpi }
%struct.mbedtls_mpi = type { ptr, i16, i16 }
%struct.mbedtls_ecdh_context = type { i8, i32, i32, %union.anon }
%union.anon = type { %struct.mbedtls_ecdh_context_mbed }
%struct.mbedtls_ecdh_context_mbed = type { %struct.mbedtls_ecp_group, %struct.mbedtls_mpi, %struct.mbedtls_ecp_point, %struct.mbedtls_ecp_point, %struct.mbedtls_mpi }
%struct.mbedtls_ecp_group = type { i32, %struct.mbedtls_mpi, %struct.mbedtls_mpi, %struct.mbedtls_mpi, %struct.mbedtls_ecp_point, %struct.mbedtls_mpi, i64, i64, i32, ptr, ptr, ptr, ptr, ptr, i64 }
%struct.mbedtls_ecp_point = type { %struct.mbedtls_mpi, %struct.mbedtls_mpi, %struct.mbedtls_mpi }
%struct.anon = type { i64, i8, [4 x %struct.mbedtls_ssl_hs_buffer], %struct.anon.0 }
%struct.mbedtls_ssl_hs_buffer = type { i8, ptr, i64 }
%struct.anon.0 = type { ptr, i64, i32 }
%struct.mbedtls_md_context_t = type { ptr, ptr, ptr }
%union.anon.1 = type { %struct.anon.2 }
%struct.anon.2 = type { i8, [64 x i8], i64 }
%union.anon.4 = type { [64 x i8] }
%struct.mbedtls_ssl_tls13_handshake_secrets = type { [64 x i8], [64 x i8] }

@.str = private unnamed_addr constant [130 x i8] c"generated/home/dtcxzyw/WorkSpace/Projects/compilers/llvm-opt-benchmark/bench/lief/bench_build/mbed_src/library/ssl_tls13_server.c\00", align 1
@.str.109 = private unnamed_addr constant [51 x i8] c"switching to handshake transform for outbound data\00", align 1
@.str.110 = private unnamed_addr constant [30 x i8] c"=> write encrypted extensions\00", align 1
@.str.111 = private unnamed_addr constant [30 x i8] c"<= write encrypted extensions\00", align 1
@.str.112 = private unnamed_addr constant [21 x i8] c"encrypted extensions\00", align 1

; Function Attrs: inlinehint nounwind uwtable
define internal i32 @mbedtls_ssl_tls13_key_exchange_mode_check(ptr noundef %0, i32 noundef %1) #3 {
  %3 = alloca ptr, align 8
  %4 = alloca i32, align 4
  store ptr %0, ptr %3, align 8, !tbaa !3
  store i32 %1, ptr %4, align 4, !tbaa !8
  %5 = load ptr, ptr %3, align 8, !tbaa !3
  %6 = getelementptr inbounds nuw %struct.mbedtls_ssl_context, ptr %5, i32 0, i32 16
  %7 = load ptr, ptr %6, align 8, !tbaa !19
  %8 = getelementptr inbounds nuw %struct.mbedtls_ssl_handshake_params, ptr %7, i32 0, i32 15
  %9 = load i8, ptr %8, align 8, !tbaa !72
  %10 = zext i8 %9 to i32
  %11 = load i32, ptr %4, align 4, !tbaa !8
  %12 = and i32 %10, %11
  %13 = icmp ne i32 %12, 0
  %14 = zext i1 %13 to i32
  ret i32 %14
}

; Function Attrs: alwaysinline nounwind uwtable
define internal void @mbedtls_put_unaligned_uint16(ptr noundef %0, i16 noundef zeroext %1) #5 {
  %3 = alloca ptr, align 8
  %4 = alloca i16, align 2
  store ptr %0, ptr %3, align 8, !tbaa !81
  store i16 %1, ptr %4, align 2, !tbaa !82
  %5 = load ptr, ptr %3, align 8, !tbaa !81
  call void @llvm.memcpy.p0.p0.i64(ptr align 1 %5, ptr align 2 %4, i64 2, i1 false)
  ret void
}

; Function Attrs: inlinehint nounwind uwtable
define internal i32 @mbedtls_ssl_chk_buf_ptr(ptr noundef %0, ptr noundef %1, i64 noundef %2) #3 {
  %4 = alloca ptr, align 8
  %5 = alloca ptr, align 8
  %6 = alloca i64, align 8
  store ptr %0, ptr %4, align 8, !tbaa !41
  store ptr %1, ptr %5, align 8, !tbaa !41
  store i64 %2, ptr %6, align 8, !tbaa !42
  %7 = load ptr, ptr %4, align 8, !tbaa !41
  %8 = load ptr, ptr %5, align 8, !tbaa !41
  %9 = icmp ugt ptr %7, %8
  br i1 %9, label %18, label %10

10:                                               ; preds = %3
  %11 = load i64, ptr %6, align 8, !tbaa !42
  %12 = load ptr, ptr %5, align 8, !tbaa !41
  %13 = load ptr, ptr %4, align 8, !tbaa !41
  %14 = ptrtoint ptr %12 to i64
  %15 = ptrtoint ptr %13 to i64
  %16 = sub i64 %14, %15
  %17 = icmp ugt i64 %11, %16
  br label %18

18:                                               ; preds = %10, %3
  %19 = phi i1 [ true, %3 ], [ %17, %10 ]
  %20 = zext i1 %19 to i32
  ret i32 %20
}

; Function Attrs: inlinehint nounwind uwtable
define internal void @mbedtls_ssl_handshake_set_state(ptr noundef %0, i32 noundef %1) #3 {
  %3 = alloca ptr, align 8
  %4 = alloca i32, align 4
  store ptr %0, ptr %3, align 8, !tbaa !3
  store i32 %1, ptr %4, align 4, !tbaa !8
  %5 = load i32, ptr %4, align 4, !tbaa !8
  %6 = load ptr, ptr %3, align 8, !tbaa !3
  %7 = getelementptr inbounds nuw %struct.mbedtls_ssl_context, ptr %6, i32 0, i32 1
  store i32 %5, ptr %7, align 8, !tbaa !10
  ret void
}

; Function Attrs: inlinehint nounwind uwtable
define internal i32 @mbedtls_ssl_tls13_key_exchange_mode_with_psk(ptr noundef %0) #3 {
  %2 = alloca ptr, align 8
  store ptr %0, ptr %2, align 8, !tbaa !3
  %3 = load ptr, ptr %2, align 8, !tbaa !3
  %4 = call i32 @mbedtls_ssl_tls13_key_exchange_mode_check(ptr noundef %3, i32 noundef 5)
  ret i32 %4
}

; Function Attrs: nounwind uwtable
define internal i32 @ssl_tls13_write_encrypted_extensions_body(ptr noundef %0, ptr noundef %1, ptr noundef %2, ptr noundef %3) #0 {
  %5 = alloca i32, align 4
  %6 = alloca ptr, align 8
  %7 = alloca ptr, align 8
  %8 = alloca ptr, align 8
  %9 = alloca ptr, align 8
  %10 = alloca i32, align 4
  %11 = alloca ptr, align 8
  %12 = alloca i64, align 8
  %13 = alloca ptr, align 8
  %14 = alloca i64, align 8
  %15 = alloca i32, align 4
  store ptr %0, ptr %6, align 8, !tbaa !3
  store ptr %1, ptr %7, align 8, !tbaa !41
  store ptr %2, ptr %8, align 8, !tbaa !41
  store ptr %3, ptr %9, align 8, !tbaa !120
  call void @llvm.lifetime.start.p0(i64 4, ptr %10) #10
  store i32 -110, ptr %10, align 4, !tbaa !8
  call void @llvm.lifetime.start.p0(i64 8, ptr %11) #10
  %16 = load ptr, ptr %7, align 8, !tbaa !41
  store ptr %16, ptr %11, align 8, !tbaa !41
  call void @llvm.lifetime.start.p0(i64 8, ptr %12) #10
  store i64 0, ptr %12, align 8, !tbaa !42
  call void @llvm.lifetime.start.p0(i64 8, ptr %13) #10
  call void @llvm.lifetime.start.p0(i64 8, ptr %14) #10
  %17 = load ptr, ptr %9, align 8, !tbaa !120
  store i64 0, ptr %17, align 8, !tbaa !42
  br label %18

18:                                               ; preds = %4
  %19 = load ptr, ptr %11, align 8, !tbaa !41
  %20 = load ptr, ptr %8, align 8, !tbaa !41
  %21 = call i32 @mbedtls_ssl_chk_buf_ptr(ptr noundef %19, ptr noundef %20, i64 noundef 2)
  %22 = icmp ne i32 %21, 0
  br i1 %22, label %23, label %24

23:                                               ; preds = %18
  store i32 -27136, ptr %5, align 4
  store i32 1, ptr %15, align 4
  br label %69

24:                                               ; preds = %18
  br label %25

25:                                               ; preds = %24
  br label %26

26:                                               ; preds = %25
  %27 = load ptr, ptr %11, align 8, !tbaa !41
  store ptr %27, ptr %13, align 8, !tbaa !41
  %28 = load ptr, ptr %11, align 8, !tbaa !41
  %29 = getelementptr inbounds i8, ptr %28, i64 2
  store ptr %29, ptr %11, align 8, !tbaa !41
  %30 = load ptr, ptr %6, align 8, !tbaa !3
  %31 = load ptr, ptr %11, align 8, !tbaa !41
  %32 = load ptr, ptr %8, align 8, !tbaa !41
  %33 = call i32 @mbedtls_ssl_write_alpn_ext(ptr noundef %30, ptr noundef %31, ptr noundef %32, ptr noundef %14)
  store i32 %33, ptr %10, align 4, !tbaa !8
  %34 = load i32, ptr %10, align 4, !tbaa !8
  %35 = icmp ne i32 %34, 0
  br i1 %35, label %36, label %38

36:                                               ; preds = %26
  %37 = load i32, ptr %10, align 4, !tbaa !8
  store i32 %37, ptr %5, align 4
  store i32 1, ptr %15, align 4
  br label %69

38:                                               ; preds = %26
  %39 = load i64, ptr %14, align 8, !tbaa !42
  %40 = load ptr, ptr %11, align 8, !tbaa !41
  %41 = getelementptr inbounds nuw i8, ptr %40, i64 %39
  store ptr %41, ptr %11, align 8, !tbaa !41
  %42 = load ptr, ptr %11, align 8, !tbaa !41
  %43 = load ptr, ptr %13, align 8, !tbaa !41
  %44 = ptrtoint ptr %42 to i64
  %45 = ptrtoint ptr %43 to i64
  %46 = sub i64 %44, %45
  %47 = sub nsw i64 %46, 2
  store i64 %47, ptr %12, align 8, !tbaa !42
  %48 = load ptr, ptr %13, align 8, !tbaa !41
  %49 = getelementptr inbounds i8, ptr %48, i64 0
  %50 = load i64, ptr %12, align 8, !tbaa !42
  %51 = trunc i64 %50 to i16
  %52 = call i16 @llvm.bswap.i16(i16 %51)
  call void @mbedtls_put_unaligned_uint16(ptr noundef %49, i16 noundef zeroext %52)
  %53 = load ptr, ptr %11, align 8, !tbaa !41
  %54 = load ptr, ptr %7, align 8, !tbaa !41
  %55 = ptrtoint ptr %53 to i64
  %56 = ptrtoint ptr %54 to i64
  %57 = sub i64 %55, %56
  %58 = load ptr, ptr %9, align 8, !tbaa !120
  store i64 %57, ptr %58, align 8, !tbaa !42
  %59 = load ptr, ptr %6, align 8, !tbaa !3
  %60 = load ptr, ptr %7, align 8, !tbaa !41
  %61 = load ptr, ptr %9, align 8, !tbaa !120
  %62 = load i64, ptr %61, align 8, !tbaa !42
  call void @mbedtls_debug_print_buf(ptr noundef %59, i32 noundef 4, ptr noundef @.str, i32 noundef 2598, ptr noundef @.str.112, ptr noundef %60, i64 noundef %62)
  %63 = load ptr, ptr %6, align 8, !tbaa !3
  %64 = load ptr, ptr %6, align 8, !tbaa !3
  %65 = getelementptr inbounds nuw %struct.mbedtls_ssl_context, ptr %64, i32 0, i32 16
  %66 = load ptr, ptr %65, align 8, !tbaa !19
  %67 = getelementptr inbounds nuw %struct.mbedtls_ssl_handshake_params, ptr %66, i32 0, i32 65
  %68 = load i32, ptr %67, align 8, !tbaa !121
  call void @mbedtls_ssl_print_extensions(ptr noundef %63, i32 noundef 3, ptr noundef @.str, i32 noundef 2601, i32 noundef 8, i32 noundef %68, ptr noundef null)
  store i32 0, ptr %5, align 4
  store i32 1, ptr %15, align 4
  br label %69

69:                                               ; preds = %38, %36, %23
  call void @llvm.lifetime.end.p0(i64 8, ptr %14) #10
  call void @llvm.lifetime.end.p0(i64 8, ptr %13) #10
  call void @llvm.lifetime.end.p0(i64 8, ptr %12) #10
  call void @llvm.lifetime.end.p0(i64 8, ptr %11) #10
  call void @llvm.lifetime.end.p0(i64 4, ptr %10) #10
  %70 = load i32, ptr %5, align 4
  ret i32 %70
}

; Function Attrs: nounwind uwtable
define internal i32 @ssl_tls13_write_encrypted_extensions(ptr noundef %0) #0 {
  %2 = alloca ptr, align 8
  %3 = alloca i32, align 4
  %4 = alloca ptr, align 8
  %5 = alloca i64, align 8
  %6 = alloca i64, align 8
  store ptr %0, ptr %2, align 8, !tbaa !3
  call void @llvm.lifetime.start.p0(i64 4, ptr %3) #10
  store i32 -110, ptr %3, align 4, !tbaa !8
  call void @llvm.lifetime.start.p0(i64 8, ptr %4) #10
  call void @llvm.lifetime.start.p0(i64 8, ptr %5) #10
  call void @llvm.lifetime.start.p0(i64 8, ptr %6) #10
  %7 = load ptr, ptr %2, align 8, !tbaa !3
  %8 = load ptr, ptr %2, align 8, !tbaa !3
  %9 = getelementptr inbounds nuw %struct.mbedtls_ssl_context, ptr %8, i32 0, i32 16
  %10 = load ptr, ptr %9, align 8, !tbaa !19
  %11 = getelementptr inbounds nuw %struct.mbedtls_ssl_handshake_params, ptr %10, i32 0, i32 69
  %12 = load ptr, ptr %11, align 8, !tbaa !47
  call void @mbedtls_ssl_set_outbound_transform(ptr noundef %7, ptr noundef %12)
  %13 = load ptr, ptr %2, align 8, !tbaa !3
  call void (ptr, i32, ptr, i32, ptr, ...) @mbedtls_debug_print_msg(ptr noundef %13, i32 noundef 3, ptr noundef @.str, i32 noundef 2616, ptr noundef @.str.109)
  %14 = load ptr, ptr %2, align 8, !tbaa !3
  call void (ptr, i32, ptr, i32, ptr, ...) @mbedtls_debug_print_msg(ptr noundef %14, i32 noundef 2, ptr noundef @.str, i32 noundef 2618, ptr noundef @.str.110)
  br label %15

15:                                               ; preds = %1
  %16 = load ptr, ptr %2, align 8, !tbaa !3
  %17 = call i32 @mbedtls_ssl_start_handshake_msg(ptr noundef %16, i8 noundef zeroext 8, ptr noundef %4, ptr noundef %5)
  store i32 %17, ptr %3, align 4, !tbaa !8
  %18 = load i32, ptr %3, align 4, !tbaa !8
  %19 = icmp ne i32 %18, 0
  br i1 %19, label %20, label %21

20:                                               ; preds = %15
  br label %67

21:                                               ; preds = %15
  br label %22

22:                                               ; preds = %21
  br label %23

23:                                               ; preds = %22
  br label %24

24:                                               ; preds = %23
  %25 = load ptr, ptr %2, align 8, !tbaa !3
  %26 = load ptr, ptr %4, align 8, !tbaa !41
  %27 = load ptr, ptr %4, align 8, !tbaa !41
  %28 = load i64, ptr %5, align 8, !tbaa !42
  %29 = getelementptr inbounds nuw i8, ptr %27, i64 %28
  %30 = call i32 @ssl_tls13_write_encrypted_extensions_body(ptr noundef %25, ptr noundef %26, ptr noundef %29, ptr noundef %6)
  store i32 %30, ptr %3, align 4, !tbaa !8
  %31 = load i32, ptr %3, align 4, !tbaa !8
  %32 = icmp ne i32 %31, 0
  br i1 %32, label %33, label %34

33:                                               ; preds = %24
  br label %67

34:                                               ; preds = %24
  br label %35

35:                                               ; preds = %34
  br label %36

36:                                               ; preds = %35
  br label %37

37:                                               ; preds = %36
  %38 = load ptr, ptr %2, align 8, !tbaa !3
  %39 = load ptr, ptr %4, align 8, !tbaa !41
  %40 = load i64, ptr %6, align 8, !tbaa !42
  %41 = call i32 @mbedtls_ssl_add_hs_msg_to_checksum(ptr noundef %38, i32 noundef 8, ptr noundef %39, i64 noundef %40)
  store i32 %41, ptr %3, align 4, !tbaa !8
  %42 = load i32, ptr %3, align 4, !tbaa !8
  %43 = icmp ne i32 %42, 0
  br i1 %43, label %44, label %45

44:                                               ; preds = %37
  br label %67

45:                                               ; preds = %37
  br label %46

46:                                               ; preds = %45
  br label %47

47:                                               ; preds = %46
  br label %48

48:                                               ; preds = %47
  %49 = load ptr, ptr %2, align 8, !tbaa !3
  %50 = load i64, ptr %5, align 8, !tbaa !42
  %51 = load i64, ptr %6, align 8, !tbaa !42
  %52 = call i32 @mbedtls_ssl_finish_handshake_msg(ptr noundef %49, i64 noundef %50, i64 noundef %51)
  store i32 %52, ptr %3, align 4, !tbaa !8
  %53 = load i32, ptr %3, align 4, !tbaa !8
  %54 = icmp ne i32 %53, 0
  br i1 %54, label %55, label %56

55:                                               ; preds = %48
  br label %67

56:                                               ; preds = %48
  br label %57

57:                                               ; preds = %56
  br label %58

58:                                               ; preds = %57
  %59 = load ptr, ptr %2, align 8, !tbaa !3
  %60 = call i32 @mbedtls_ssl_tls13_key_exchange_mode_with_psk(ptr noundef %59)
  %61 = icmp ne i32 %60, 0
  br i1 %61, label %62, label %64

62:                                               ; preds = %58
  %63 = load ptr, ptr %2, align 8, !tbaa !3
  call void @mbedtls_ssl_handshake_set_state(ptr noundef %63, i32 noundef 13)
  br label %66

64:                                               ; preds = %58
  %65 = load ptr, ptr %2, align 8, !tbaa !3
  call void @mbedtls_ssl_handshake_set_state(ptr noundef %65, i32 noundef 5)
  br label %66

66:                                               ; preds = %64, %62
  br label %67

67:                                               ; preds = %66, %55, %44, %33, %20
  %68 = load ptr, ptr %2, align 8, !tbaa !3
  call void (ptr, i32, ptr, i32, ptr, ...) @mbedtls_debug_print_msg(ptr noundef %68, i32 noundef 2, ptr noundef @.str, i32 noundef 2646, ptr noundef @.str.111)
  %69 = load i32, ptr %3, align 4, !tbaa !8
  call void @llvm.lifetime.end.p0(i64 8, ptr %6) #10
  call void @llvm.lifetime.end.p0(i64 8, ptr %5) #10
  call void @llvm.lifetime.end.p0(i64 8, ptr %4) #10
  call void @llvm.lifetime.end.p0(i64 4, ptr %3) #10
  ret i32 %69
}