; Function Attrs: nounwind uwtable
define internal fastcc i32 @ssl_tls13_write_encrypted_extensions(ptr noundef %0) unnamed_addr #0 {
  %2 = alloca i64, align 8
  %3 = alloca ptr, align 8
  %4 = alloca i64, align 8
  call void @llvm.lifetime.start.p0(i64 8, ptr nonnull %3) #9
  call void @llvm.lifetime.start.p0(i64 8, ptr nonnull %4) #9
  %5 = getelementptr inbounds nuw i8, ptr %0, i64 112
  %6 = load ptr, ptr %5, align 8, !tbaa !16
  %7 = getelementptr inbounds nuw i8, ptr %6, i64 3296
  %8 = load ptr, ptr %7, align 8, !tbaa !76
  tail call void @mbedtls_ssl_set_outbound_transform(ptr noundef %0, ptr noundef %8) #9
  tail call void (ptr, i32, ptr, i32, ptr, ...) @mbedtls_debug_print_msg(ptr noundef %0, i32 noundef 3, ptr noundef nonnull @.str, i32 noundef 2616, ptr noundef nonnull @.str.109) #9
  tail call void (ptr, i32, ptr, i32, ptr, ...) @mbedtls_debug_print_msg(ptr noundef %0, i32 noundef 2, ptr noundef nonnull @.str, i32 noundef 2618, ptr noundef nonnull @.str.110) #9
  %9 = call i32 @mbedtls_ssl_start_handshake_msg(ptr noundef %0, i8 noundef zeroext 8, ptr noundef nonnull %3, ptr noundef nonnull %4) #9
  %.not = icmp eq i32 %9, 0
  br i1 %.not, label %10, label %41

10:                                               ; preds = %1
  %11 = load ptr, ptr %3, align 8, !tbaa !38
  %12 = load i64, ptr %4, align 8, !tbaa !39
  call void @llvm.lifetime.start.p0(i64 8, ptr nonnull %2) #9
  %13 = ptrtoint ptr %11 to i64
  %14 = icmp ugt i64 %12, 1
  br i1 %14, label %15, label %ssl_tls13_write_encrypted_extensions_body.exit.thread

15:                                               ; preds = %10
  %16 = getelementptr inbounds nuw i8, ptr %11, i64 %12
  %17 = getelementptr inbounds nuw i8, ptr %11, i64 2
  %18 = call i32 @mbedtls_ssl_write_alpn_ext(ptr noundef nonnull %0, ptr noundef nonnull %17, ptr noundef nonnull %16, ptr noundef nonnull %2) #9
  %.not25.i = icmp eq i32 %18, 0
  br i1 %.not25.i, label %19, label %ssl_tls13_write_encrypted_extensions_body.exit.thread

ssl_tls13_write_encrypted_extensions_body.exit.thread: ; preds = %10, %15
  %.0.i.ph = phi i32 [ %18, %15 ], [ -27136, %10 ]
  call void @llvm.lifetime.end.p0(i64 8, ptr nonnull %2) #9
  br label %41

19:                                               ; preds = %15
  %20 = load i64, ptr %2, align 8, !tbaa !39
  %21 = getelementptr inbounds nuw i8, ptr %17, i64 %20
  %22 = ptrtoint ptr %21 to i64
  %23 = sub i64 %22, %13
  %24 = trunc i64 %23 to i16
  %25 = add i16 %24, -2
  %26 = call i16 @llvm.bswap.i16(i16 %25)
  store i16 %26, ptr %11, align 1
  call void @mbedtls_debug_print_buf(ptr noundef nonnull %0, i32 noundef 4, ptr noundef nonnull @.str, i32 noundef 2598, ptr noundef nonnull @.str.112, ptr noundef nonnull %11, i64 noundef %23) #9
  %27 = load ptr, ptr %5, align 8, !tbaa !16
  %28 = getelementptr inbounds nuw i8, ptr %27, i64 3272
  %29 = load i32, ptr %28, align 8, !tbaa !77
  call void @mbedtls_ssl_print_extensions(ptr noundef nonnull %0, i32 noundef 3, ptr noundef nonnull @.str, i32 noundef 2601, i32 noundef 8, i32 noundef %29, ptr noundef null) #9
  call void @llvm.lifetime.end.p0(i64 8, ptr nonnull %2) #9
  %30 = load ptr, ptr %3, align 8, !tbaa !38
  %31 = call i32 @mbedtls_ssl_add_hs_msg_to_checksum(ptr noundef nonnull %0, i32 noundef 8, ptr noundef %30, i64 noundef %23) #9
  %.not21 = icmp eq i32 %31, 0
  br i1 %.not21, label %32, label %41

32:                                               ; preds = %19
  %33 = load i64, ptr %4, align 8, !tbaa !39
  %34 = call i32 @mbedtls_ssl_finish_handshake_msg(ptr noundef nonnull %0, i64 noundef %33, i64 noundef %23) #9
  %.not22 = icmp eq i32 %34, 0
  br i1 %.not22, label %35, label %41

35:                                               ; preds = %32
  %.val = load ptr, ptr %5, align 8, !tbaa !16
  %36 = getelementptr i8, ptr %.val, i64 56
  %.val.val = load i8, ptr %36, align 8, !tbaa !63
  %37 = and i8 %.val.val, 5
  %.not29 = icmp eq i8 %37, 0
  %38 = getelementptr inbounds nuw i8, ptr %0, i64 8
  br i1 %.not29, label %40, label %39

39:                                               ; preds = %35
  store i32 13, ptr %38, align 8, !tbaa !3
  br label %41

40:                                               ; preds = %35
  store i32 5, ptr %38, align 8, !tbaa !3
  br label %41

41:                                               ; preds = %ssl_tls13_write_encrypted_extensions_body.exit.thread, %39, %40, %32, %19, %1
  %.0 = phi i32 [ %9, %1 ], [ %31, %19 ], [ %34, %32 ], [ 0, %39 ], [ 0, %40 ], [ %.0.i.ph, %ssl_tls13_write_encrypted_extensions_body.exit.thread ]
  call void (ptr, i32, ptr, i32, ptr, ...) @mbedtls_debug_print_msg(ptr noundef nonnull %0, i32 noundef 2, ptr noundef nonnull @.str, i32 noundef 2646, ptr noundef nonnull @.str.111) #9
  call void @llvm.lifetime.end.p0(i64 8, ptr nonnull %4) #9
  call void @llvm.lifetime.end.p0(i64 8, ptr nonnull %3) #9
  ret i32 %.0
}